target datalayout = "e-m:e-p270:32:32-p271:32:32-p272:64:64-i64:64-i128:128-f80:128-n8:16:32:64-S128"
target triple = "x86_64-pc-linux-gnu"

@.str.2075 = private unnamed_addr constant [5 x i8] c"%s%u\00", align 1
@.str.2076 = private unnamed_addr constant [3 x i8] c", \00", align 1
@.str.2077 = private unnamed_addr constant [1 x i8] zeroinitializer, align 1
@.str.2078 = private unnamed_addr constant [2 x i8] c" \00", align 1

; Function Attrs: null_pointer_is_valid sspstrong uwtable
define internal void @cf_opa_mad_32b_mask(ptr noundef %0, i32 noundef %1) #0 {
  %3 = alloca ptr, align 8
  %4 = alloca i32, align 4
  %5 = alloca i32, align 4
  %6 = alloca i32, align 4
  %7 = alloca i32, align 4
  store ptr %0, ptr %3, align 8
  store i32 %1, ptr %4, align 4
  call void @llvm.lifetime.start.p0(i64 4, ptr %5) #7
  store i32 0, ptr %5, align 4
  call void @llvm.lifetime.start.p0(i64 4, ptr %6) #7
  call void @llvm.lifetime.start.p0(i64 4, ptr %7) #7
  store i32 0, ptr %6, align 4
  %8 = load i32, ptr %4, align 4
  store i32 %8, ptr %7, align 4
  br label %9

9:                                                ; preds = %45, %2
  %10 = load i32, ptr %7, align 4
  %11 = icmp ne i32 %10, 0
  br i1 %11, label %12, label %18

12:                                               ; preds = %9
  %13 = load i32, ptr %6, align 4
  %14 = icmp ult i32 %13, 32
  br i1 %14, label %15, label %18

15:                                               ; preds = %12
  %16 = load i32, ptr %5, align 4
  %17 = icmp slt i32 %16, 240
  br label %18

18:                                               ; preds = %15, %12, %9
  %19 = phi i1 [ false, %12 ], [ false, %9 ], [ %17, %15 ]
  br i1 %19, label %20, label %50

20:                                               ; preds = %18
  %21 = load i32, ptr %7, align 4
  %22 = and i32 %21, 1
  %23 = icmp ne i32 %22, 0
  br i1 %23, label %24, label %44

24:                                               ; preds = %20
  %25 = load ptr, ptr %3, align 8
  %26 = load i32, ptr %5, align 4
  %27 = sext i32 %26 to i64
  %28 = getelementptr i8, ptr %25, i64 %27
  %29 = load i32, ptr %5, align 4
  %30 = sub i32 240, %29
  %31 = sext i32 %30 to i64
  %32 = load ptr, ptr %3, align 8
  %33 = load i32, ptr %5, align 4
  %34 = sext i32 %33 to i64
  %35 = getelementptr i8, ptr %32, i64 %34
  %36 = call i64 @llvm.objectsize.i64.p0(ptr %35, i1 false, i1 true, i1 true)
  %37 = load i32, ptr %5, align 4
  %38 = icmp ne i32 %37, 0
  %39 = select i1 %38, ptr @.str.2076, ptr @.str.2077
  %40 = load i32, ptr %6, align 4
  %41 = call i32 (ptr, i64, i32, i64, ptr, ...) @__snprintf_chk(ptr noundef %28, i64 noundef %31, i32 noundef 2, i64 noundef %36, ptr noundef @.str.2075, ptr noundef %39, i32 noundef %40)
  %42 = load i32, ptr %5, align 4
  %43 = add i32 %42, %41
  store i32 %43, ptr %5, align 4
  br label %44

44:                                               ; preds = %24, %20
  br label %45

45:                                               ; preds = %44
  %46 = load i32, ptr %6, align 4
  %47 = add i32 %46, 1
  store i32 %47, ptr %6, align 4
  %48 = load i32, ptr %7, align 4
  %49 = lshr i32 %48, 1
  store i32 %49, ptr %7, align 4
  br label %9, !llvm.loop !6

50:                                               ; preds = %18
  %51 = load i32, ptr %5, align 4
  %52 = icmp ne i32 %51, 0
  br i1 %52, label %58, label %53

53:                                               ; preds = %50
  %54 = load ptr, ptr %3, align 8
  %55 = load ptr, ptr %3, align 8
  %56 = call i64 @llvm.objectsize.i64.p0(ptr %55, i1 false, i1 true, i1 true)
  %57 = call i32 (ptr, i64, i32, i64, ptr, ...) @__snprintf_chk(ptr noundef %54, i64 noundef 240, i32 noundef 2, i64 noundef %56, ptr noundef @.str.2078)
  br label %58

58:                                               ; preds = %53, %50
  call void @llvm.lifetime.end.p0(i64 4, ptr %7) #7
  call void @llvm.lifetime.end.p0(i64 4, ptr %6) #7
  call void @llvm.lifetime.end.p0(i64 4, ptr %5) #7
  ret void
}