; Function Attrs: nofree null_pointer_is_valid sspstrong uwtable
define internal void @cf_opa_mad_32b_mask(ptr noundef %0, i32 noundef %1) #2 {
  %.not27 = icmp eq i32 %1, 0
  br i1 %.not27, label %.critedge.thread, label %.lr.ph

.lr.ph:                                           ; preds = %2, %12
  %.026 = phi i32 [ %14, %12 ], [ %1, %2 ]
  %.02025 = phi i32 [ %13, %12 ], [ 0, %2 ]
  %.02124 = phi i32 [ %.1, %12 ], [ 0, %2 ]
  %3 = and i32 %.026, 1
  %.not22 = icmp eq i32 %3, 0
  br i1 %.not22, label %12, label %4

4:                                                ; preds = %.lr.ph
  %5 = sext i32 %.02124 to i64
  %6 = getelementptr i8, ptr %0, i64 %5
  %7 = sub i32 240, %.02124
  %8 = sext i32 %7 to i64
  %.not23 = icmp eq i32 %.02124, 0
  %9 = select i1 %.not23, ptr @.str.2077, ptr @.str.2076
  %10 = tail call i32 (ptr, i64, i32, i64, ptr, ...) @__snprintf_chk(ptr noundef %6, i64 noundef %8, i32 noundef 2, i64 noundef -1, ptr noundef nonnull @.str.2075, ptr noundef nonnull %9, i32 noundef %.02025)
  %11 = add i32 %10, %.02124
  br label %12

12:                                               ; preds = %.lr.ph, %4
  %.1 = phi i32 [ %11, %4 ], [ %.02124, %.lr.ph ]
  %13 = add nuw nsw i32 %.02025, 1
  %14 = lshr i32 %.026, 1
  %15 = icmp ugt i32 %.026, 1
  %16 = icmp samesign ult i32 %.02025, 31
  %or.cond = select i1 %15, i1 %16, i1 false
  %17 = icmp slt i32 %.1, 240
  %or.cond3 = select i1 %or.cond, i1 %17, i1 false
  br i1 %or.cond3, label %.lr.ph, label %.critedge, !llvm.loop !6

.critedge:                                        ; preds = %12
  %18 = icmp eq i32 %.1, 0
  br i1 %18, label %.critedge.thread, label %20

.critedge.thread:                                 ; preds = %2, %.critedge
  %19 = tail call i32 (ptr, i64, i32, i64, ptr, ...) @__snprintf_chk(ptr noundef %0, i64 noundef 240, i32 noundef 2, i64 noundef -1, ptr noundef nonnull @.str.2078)
  br label %20

20:                                               ; preds = %.critedge.thread, %.critedge
  ret void
}